target datalayout = "e-m:e-p270:32:32-p271:32:32-p272:64:64-i64:64-i128:128-f80:128-n8:16:32:64-S128"
target triple = "x86_64-pc-linux-gnu"

%struct._zend_refcounted_h = type { i32, %union.anon }
%union.anon = type { i32 }
%struct._zend_string = type { %struct._zend_refcounted_h, i64, i64, [1 x i8] }

@.str.16 = private unnamed_addr constant [8 x i8] c"Unknown\00", align 1
@.str.17 = private unnamed_addr constant [12 x i8] c"%s(%d) : %s\00", align 1

; Function Attrs: nounwind uwtable
define ptr @zend_make_compiled_string_description(ptr noundef %0) #0 {
  %2 = alloca ptr, align 8
  %3 = alloca ptr, align 8
  %4 = alloca i32, align 4
  %5 = alloca ptr, align 8
  store ptr %0, ptr %2, align 8
  %6 = call zeroext i1 @zend_is_compiling()
  br i1 %6, label %7, label %12

7:                                                ; preds = %1
  %8 = call ptr @zend_get_compiled_filename()
  %9 = getelementptr inbounds %struct._zend_string, ptr %8, i32 0, i32 3
  %10 = getelementptr inbounds [1 x i8], ptr %9, i64 0, i64 0
  store ptr %10, ptr %3, align 8
  %11 = call i32 @zend_get_compiled_lineno()
  store i32 %11, ptr %4, align 4
  br label %19

12:                                               ; preds = %1
  %13 = call zeroext i1 @zend_is_executing()
  br i1 %13, label %14, label %17

14:                                               ; preds = %12
  %15 = call ptr @zend_get_executed_filename()
  store ptr %15, ptr %3, align 8
  %16 = call i32 @zend_get_executed_lineno()
  store i32 %16, ptr %4, align 4
  br label %18

17:                                               ; preds = %12
  store ptr @.str.16, ptr %3, align 8
  store i32 0, ptr %4, align 4
  br label %18

18:                                               ; preds = %17, %14
  br label %19

19:                                               ; preds = %18, %7
  %20 = load ptr, ptr %3, align 8
  %21 = load i32, ptr %4, align 4
  %22 = load ptr, ptr %2, align 8
  %23 = call i64 (ptr, i64, ptr, ...) @zend_spprintf(ptr noundef %5, i64 noundef 0, ptr noundef @.str.17, ptr noundef %20, i32 noundef %21, ptr noundef %22)
  %24 = load ptr, ptr %5, align 8
  ret ptr %24
}