; Function Attrs: nounwind uwtable
define ptr @zend_make_compiled_string_description(ptr noundef %0) local_unnamed_addr #0 {
  %2 = alloca ptr, align 8
  %3 = tail call zeroext i1 @zend_is_compiling() #30
  br i1 %3, label %4, label %8

4:                                                ; preds = %1
  %5 = tail call ptr @zend_get_compiled_filename() #30
  %6 = getelementptr inbounds i8, ptr %5, i64 24
  %7 = tail call i32 @zend_get_compiled_lineno() #30
  br label %13

8:                                                ; preds = %1
  %9 = tail call zeroext i1 @zend_is_executing() #30
  br i1 %9, label %10, label %13

10:                                               ; preds = %8
  %11 = tail call ptr @zend_get_executed_filename() #30
  %12 = tail call i32 @zend_get_executed_lineno() #30
  br label %13

13:                                               ; preds = %8, %10, %4
  %.02 = phi ptr [ %6, %4 ], [ %11, %10 ], [ @.str.16, %8 ]
  %.0 = phi i32 [ %7, %4 ], [ %12, %10 ], [ 0, %8 ]
  %14 = call i64 (ptr, i64, ptr, ...) @zend_spprintf(ptr noundef nonnull %2, i64 noundef 0, ptr noundef nonnull @.str.17, ptr noundef %.02, i32 noundef %.0, ptr noundef %0)
  %15 = load ptr, ptr %2, align 8
  ret ptr %15
}